target datalayout = "e-m:e-p270:32:32-p271:32:32-p272:64:64-i64:64-i128:128-f80:128-n8:16:32:64-S128"
target triple = "x86_64-pc-linux-gnu"

%struct._PyOnceFlag = type { i8 }

@__func__.unlock_once = private unnamed_addr constant [12 x i8] c"unlock_once\00", align 1
@.str.2 = private unnamed_addr constant [41 x i8] c"invalid result from _PyOnceFlag_CallOnce\00", align 1

; Function Attrs: inlinehint nounwind uwtable
define internal zeroext i8 @_Py_atomic_exchange_uint8(ptr noundef %0, i8 noundef zeroext %1) #2 {
  %3 = alloca ptr, align 8
  %4 = alloca i8, align 1
  %5 = alloca i8, align 1
  %6 = alloca i8, align 1
  store ptr %0, ptr %3, align 8, !tbaa !17
  store i8 %1, ptr %4, align 1, !tbaa !13
  %7 = load ptr, ptr %3, align 8, !tbaa !17
  %8 = load i8, ptr %4, align 1, !tbaa !13
  store i8 %8, ptr %5, align 1, !tbaa !13
  %9 = load i8, ptr %5, align 1
  %10 = atomicrmw xchg ptr %7, i8 %9 seq_cst, align 1
  store i8 %10, ptr %6, align 1
  %11 = load i8, ptr %6, align 1, !tbaa !13
  ret i8 %11
}

; Function Attrs: nounwind uwtable
define internal i32 @unlock_once(ptr noundef %0, i32 noundef %1) #0 {
  %3 = alloca ptr, align 8
  %4 = alloca i32, align 4
  %5 = alloca i8, align 1
  %6 = alloca i8, align 1
  store ptr %0, ptr %3, align 8, !tbaa !25
  store i32 %1, ptr %4, align 4, !tbaa !11
  call void @llvm.lifetime.start.p0(i64 1, ptr %5) #7
  %7 = load i32, ptr %4, align 4, !tbaa !11
  switch i32 %7, label %10 [
    i32 -1, label %8
    i32 0, label %9
  ]

8:                                                ; preds = %2
  store i8 0, ptr %5, align 1, !tbaa !13
  br label %11

9:                                                ; preds = %2
  store i8 4, ptr %5, align 1, !tbaa !13
  br label %11

10:                                               ; preds = %2
  call void @_Py_FatalErrorFunc(ptr noundef @__func__.unlock_once, ptr noundef @.str.2) #8
  unreachable

11:                                               ; preds = %9, %8
  call void @llvm.lifetime.start.p0(i64 1, ptr %6) #7
  %12 = load ptr, ptr %3, align 8, !tbaa !25
  %13 = getelementptr inbounds nuw %struct._PyOnceFlag, ptr %12, i32 0, i32 0
  %14 = load i8, ptr %5, align 1, !tbaa !13
  %15 = call zeroext i8 @_Py_atomic_exchange_uint8(ptr noundef %13, i8 noundef zeroext %14)
  store i8 %15, ptr %6, align 1, !tbaa !13
  %16 = load i8, ptr %6, align 1, !tbaa !13
  %17 = zext i8 %16 to i32
  %18 = and i32 %17, 2
  %19 = icmp ne i32 %18, 0
  br i1 %19, label %20, label %23

20:                                               ; preds = %11
  %21 = load ptr, ptr %3, align 8, !tbaa !25
  %22 = getelementptr inbounds nuw %struct._PyOnceFlag, ptr %21, i32 0, i32 0
  call void @_PyParkingLot_UnparkAll(ptr noundef %22)
  br label %23

23:                                               ; preds = %20, %11
  %24 = load i32, ptr %4, align 4, !tbaa !11
  call void @llvm.lifetime.end.p0(i64 1, ptr %6) #7
  call void @llvm.lifetime.end.p0(i64 1, ptr %5) #7
  ret i32 %24
}

; Function Attrs: inlinehint nounwind uwtable
define internal i32 @_Py_atomic_compare_exchange_uint8(ptr noundef %0, ptr noundef %1, i8 noundef zeroext %2) #2 {
  %4 = alloca ptr, align 8
  %5 = alloca ptr, align 8
  %6 = alloca i8, align 1
  %7 = alloca i8, align 1
  %8 = alloca i8, align 1
  store ptr %0, ptr %4, align 8, !tbaa !17
  store ptr %1, ptr %5, align 8, !tbaa !17
  store i8 %2, ptr %6, align 1, !tbaa !13
  %9 = load ptr, ptr %4, align 8, !tbaa !17
  %10 = load ptr, ptr %5, align 8, !tbaa !17
  %11 = load i8, ptr %6, align 1, !tbaa !13
  store i8 %11, ptr %7, align 1, !tbaa !13
  %12 = load i8, ptr %10, align 1
  %13 = load i8, ptr %7, align 1
  %14 = cmpxchg ptr %9, i8 %12, i8 %13 seq_cst seq_cst, align 1
  %15 = extractvalue { i8, i1 } %14, 0
  %16 = extractvalue { i8, i1 } %14, 1
  br i1 %16, label %18, label %17

17:                                               ; preds = %3
  store i8 %15, ptr %10, align 1
  br label %18

18:                                               ; preds = %17, %3
  %19 = zext i1 %16 to i8
  store i8 %19, ptr %8, align 1, !tbaa !19
  %20 = load i8, ptr %8, align 1, !tbaa !19, !range !21, !noundef !22
  %21 = trunc i8 %20 to i1
  %22 = zext i1 %21 to i32
  ret i32 %22
}

; Function Attrs: inlinehint nounwind uwtable
define internal zeroext i8 @_Py_atomic_load_uint8(ptr noundef %0) #2 {
  %2 = alloca ptr, align 8
  %3 = alloca i8, align 1
  store ptr %0, ptr %2, align 8, !tbaa !17
  %4 = load ptr, ptr %2, align 8, !tbaa !17
  %5 = load atomic i8, ptr %4 seq_cst, align 1
  store i8 %5, ptr %3, align 1
  %6 = load i8, ptr %3, align 1, !tbaa !13
  ret i8 %6
}

; Function Attrs: nounwind uwtable
define dso_local i32 @_PyOnceFlag_CallOnceSlow(ptr noundef %0, ptr noundef %1, ptr noundef %2) #0 {
  %4 = alloca i32, align 4
  %5 = alloca ptr, align 8
  %6 = alloca ptr, align 8
  %7 = alloca ptr, align 8
  %8 = alloca i8, align 1
  %9 = alloca i32, align 4
  %10 = alloca i32, align 4
  %11 = alloca i8, align 1
  store ptr %0, ptr %5, align 8, !tbaa !25
  store ptr %1, ptr %6, align 8, !tbaa !25
  store ptr %2, ptr %7, align 8, !tbaa !25
  call void @llvm.lifetime.start.p0(i64 1, ptr %8) #7
  %12 = load ptr, ptr %5, align 8, !tbaa !25
  %13 = getelementptr inbounds nuw %struct._PyOnceFlag, ptr %12, i32 0, i32 0
  %14 = call zeroext i8 @_Py_atomic_load_uint8(ptr noundef %13)
  store i8 %14, ptr %8, align 1, !tbaa !13
  br label %15

15:                                               ; preds = %58, %55, %24, %3
  %16 = load i8, ptr %8, align 1, !tbaa !13
  %17 = zext i8 %16 to i32
  %18 = icmp eq i32 %17, 0
  br i1 %18, label %19, label %32

19:                                               ; preds = %15
  %20 = load ptr, ptr %5, align 8, !tbaa !25
  %21 = getelementptr inbounds nuw %struct._PyOnceFlag, ptr %20, i32 0, i32 0
  %22 = call i32 @_Py_atomic_compare_exchange_uint8(ptr noundef %21, ptr noundef %8, i8 noundef zeroext 1)
  %23 = icmp ne i32 %22, 0
  br i1 %23, label %25, label %24

24:                                               ; preds = %19
  br label %15

25:                                               ; preds = %19
  call void @llvm.lifetime.start.p0(i64 4, ptr %9) #7
  %26 = load ptr, ptr %6, align 8, !tbaa !25
  %27 = load ptr, ptr %7, align 8, !tbaa !25
  %28 = call i32 %26(ptr noundef %27)
  store i32 %28, ptr %9, align 4, !tbaa !11
  %29 = load ptr, ptr %5, align 8, !tbaa !25
  %30 = load i32, ptr %9, align 4, !tbaa !11
  %31 = call i32 @unlock_once(ptr noundef %29, i32 noundef %30)
  store i32 %31, ptr %4, align 4
  store i32 1, ptr %10, align 4
  call void @llvm.lifetime.end.p0(i64 4, ptr %9) #7
  br label %65

32:                                               ; preds = %15
  %33 = load i8, ptr %8, align 1, !tbaa !13
  %34 = zext i8 %33 to i32
  %35 = icmp eq i32 %34, 4
  br i1 %35, label %36, label %37

36:                                               ; preds = %32
  store i32 0, ptr %4, align 4
  store i32 1, ptr %10, align 4
  br label %65

37:                                               ; preds = %32
  %38 = load i8, ptr %8, align 1, !tbaa !13
  %39 = zext i8 %38 to i32
  %40 = and i32 %39, 2
  %41 = icmp ne i32 %40, 0
  br i1 %41, label %58, label %42

42:                                               ; preds = %37
  call void @llvm.lifetime.start.p0(i64 1, ptr %11) #7
  %43 = load i8, ptr %8, align 1, !tbaa !13
  %44 = zext i8 %43 to i32
  %45 = or i32 %44, 2
  %46 = trunc i32 %45 to i8
  store i8 %46, ptr %11, align 1, !tbaa !13
  %47 = load ptr, ptr %5, align 8, !tbaa !25
  %48 = getelementptr inbounds nuw %struct._PyOnceFlag, ptr %47, i32 0, i32 0
  %49 = load i8, ptr %11, align 1, !tbaa !13
  %50 = call i32 @_Py_atomic_compare_exchange_uint8(ptr noundef %48, ptr noundef %8, i8 noundef zeroext %49)
  %51 = icmp ne i32 %50, 0
  br i1 %51, label %53, label %52

52:                                               ; preds = %42
  store i32 3, ptr %10, align 4
  br label %55

53:                                               ; preds = %42
  %54 = load i8, ptr %11, align 1, !tbaa !13
  store i8 %54, ptr %8, align 1, !tbaa !13
  store i32 0, ptr %10, align 4
  br label %55

55:                                               ; preds = %53, %52
  call void @llvm.lifetime.end.p0(i64 1, ptr %11) #7
  %56 = load i32, ptr %10, align 4
  switch i32 %56, label %67 [
    i32 0, label %57
    i32 3, label %15
  ]

57:                                               ; preds = %55
  br label %58

58:                                               ; preds = %57, %37
  %59 = load ptr, ptr %5, align 8, !tbaa !25
  %60 = getelementptr inbounds nuw %struct._PyOnceFlag, ptr %59, i32 0, i32 0
  %61 = call i32 @_PyParkingLot_Park(ptr noundef %60, ptr noundef %8, i64 noundef 1, i64 noundef -1, ptr noundef null, i32 noundef 1)
  %62 = load ptr, ptr %5, align 8, !tbaa !25
  %63 = getelementptr inbounds nuw %struct._PyOnceFlag, ptr %62, i32 0, i32 0
  %64 = call zeroext i8 @_Py_atomic_load_uint8(ptr noundef %63)
  store i8 %64, ptr %8, align 1, !tbaa !13
  br label %15

65:                                               ; preds = %36, %25
  call void @llvm.lifetime.end.p0(i64 1, ptr %8) #7
  %66 = load i32, ptr %4, align 4
  ret i32 %66

67:                                               ; preds = %55
  unreachable
}