; Function Attrs: nounwind uwtable
define dso_local range(i32 -1, 1) i32 @_PyOnceFlag_CallOnceSlow(ptr noundef %0, ptr noundef readonly captures(none) %1, ptr noundef %2) local_unnamed_addr #0 {
  %4 = alloca i8, align 1
  call void @llvm.lifetime.start.p0(i64 1, ptr nonnull %4) #8
  %5 = load atomic i8, ptr %0 seq_cst, align 1
  br label %.backedge

thread-pre-split:                                 ; preds = %18, %7
  %.pn = phi { i8, i1 } [ %8, %7 ], [ %20, %18 ]
  %storemerge = extractvalue { i8, i1 } %.pn, 0
  br label %.backedge.backedge

.backedge:                                        ; preds = %.backedge.backedge, %3
  %6 = phi i8 [ %5, %3 ], [ %.be, %.backedge.backedge ]
  store i8 %6, ptr %4, align 1
  switch i8 %6, label %16 [
    i8 0, label %7
    i8 4, label %unlock_once.exit
  ]

7:                                                ; preds = %.backedge
  %8 = cmpxchg ptr %0, i8 0, i8 1 seq_cst seq_cst, align 1
  %9 = extractvalue { i8, i1 } %8, 1
  br i1 %9, label %10, label %thread-pre-split

10:                                               ; preds = %7
  %11 = call i32 %1(ptr noundef %2) #8
  switch i32 %11, label %12 [
    i32 -1, label %.split6.i
    i32 0, label %.split.i
  ]

.split.i:                                         ; preds = %10
  br label %.split6.i

12:                                               ; preds = %10
  call void @_Py_FatalErrorFunc(ptr noundef nonnull @__func__.unlock_once, ptr noundef nonnull @.str.2) #9
  unreachable

.split6.i:                                        ; preds = %.split.i, %10
  %.sink.i = phi i8 [ 4, %.split.i ], [ 0, %10 ]
  %13 = atomicrmw xchg ptr %0, i8 %.sink.i seq_cst, align 1
  %14 = and i8 %13, 2
  %.not.i = icmp eq i8 %14, 0
  br i1 %.not.i, label %unlock_once.exit, label %15

15:                                               ; preds = %.split6.i
  call void @_PyParkingLot_UnparkAll(ptr noundef nonnull %0) #8
  br label %unlock_once.exit

16:                                               ; preds = %.backedge
  %17 = and i8 %6, 2
  %.not = icmp eq i8 %17, 0
  br i1 %.not, label %18, label %22

18:                                               ; preds = %16
  %19 = or disjoint i8 %6, 2
  %20 = cmpxchg ptr %0, i8 %6, i8 %19 seq_cst seq_cst, align 1
  %21 = extractvalue { i8, i1 } %20, 1
  br i1 %21, label %.thread, label %thread-pre-split

.thread:                                          ; preds = %18
  store i8 %19, ptr %4, align 1, !tbaa !12
  br label %22

22:                                               ; preds = %.thread, %16
  %23 = call i32 @_PyParkingLot_Park(ptr noundef nonnull %0, ptr noundef nonnull %4, i64 noundef 1, i64 noundef -1, ptr noundef null, i32 noundef 1) #8
  %24 = load atomic i8, ptr %0 seq_cst, align 1
  br label %.backedge.backedge

.backedge.backedge:                               ; preds = %22, %thread-pre-split
  %.be = phi i8 [ %storemerge, %thread-pre-split ], [ %24, %22 ]
  br label %.backedge

unlock_once.exit:                                 ; preds = %.backedge, %15, %.split6.i
  %.0 = phi i32 [ %11, %.split6.i ], [ %11, %15 ], [ 0, %.backedge ]
  call void @llvm.lifetime.end.p0(i64 1, ptr nonnull %4) #8
  ret i32 %.0
}